target datalayout = "e-m:e-p270:32:32-p271:32:32-p272:64:64-i64:64-i128:128-f80:128-n8:16:32:64-S128"
target triple = "x86_64-pc-linux-gnu"

%struct.dict = type { ptr, [2 x ptr], [2 x i64], i64, i16, [2 x i8], i16, [0 x ptr] }
%struct.dictStats = type { i32, i64, i64, i64, i64, i64, ptr }

; Function Attrs: nounwind uwtable
define dso_local void @dictFreeStats(ptr noundef %0) #0 {
  %2 = alloca ptr, align 8
  store ptr %0, ptr %2, align 8, !tbaa !111
  %3 = load ptr, ptr %2, align 8, !tbaa !111
  %4 = getelementptr inbounds nuw %struct.dictStats, ptr %3, i32 0, i32 6
  %5 = load ptr, ptr %4, align 8, !tbaa !113
  call void @zfree(ptr noundef %5)
  %6 = load ptr, ptr %2, align 8, !tbaa !111
  call void @zfree(ptr noundef %6)
  ret void
}

; Function Attrs: nounwind uwtable
define dso_local void @dictGetStats(ptr noundef %0, i64 noundef %1, ptr noundef %2, i32 noundef %3) #0 {
  %5 = alloca ptr, align 8
  %6 = alloca i64, align 8
  %7 = alloca ptr, align 8
  %8 = alloca i32, align 4
  %9 = alloca i64, align 8
  %10 = alloca ptr, align 8
  %11 = alloca i64, align 8
  %12 = alloca ptr, align 8
  %13 = alloca ptr, align 8
  store ptr %0, ptr %5, align 8, !tbaa !5
  store i64 %1, ptr %6, align 8, !tbaa !11
  store ptr %2, ptr %7, align 8, !tbaa !18
  store i32 %3, ptr %8, align 4, !tbaa !29
  call void @llvm.lifetime.start.p0(i64 8, ptr %9) #14
  call void @llvm.lifetime.start.p0(i64 8, ptr %10) #14
  %14 = load ptr, ptr %5, align 8, !tbaa !5
  store ptr %14, ptr %10, align 8, !tbaa !5
  call void @llvm.lifetime.start.p0(i64 8, ptr %11) #14
  %15 = load i64, ptr %6, align 8, !tbaa !11
  store i64 %15, ptr %11, align 8, !tbaa !11
  call void @llvm.lifetime.start.p0(i64 8, ptr %12) #14
  %16 = load ptr, ptr %7, align 8, !tbaa !18
  %17 = load i32, ptr %8, align 4, !tbaa !29
  %18 = call ptr @dictGetStatsHt(ptr noundef %16, i32 noundef 0, i32 noundef %17)
  store ptr %18, ptr %12, align 8, !tbaa !111
  %19 = load ptr, ptr %5, align 8, !tbaa !5
  %20 = load i64, ptr %6, align 8, !tbaa !11
  %21 = load ptr, ptr %12, align 8, !tbaa !111
  %22 = load i32, ptr %8, align 4, !tbaa !29
  %23 = call i64 @dictGetStatsMsg(ptr noundef %19, i64 noundef %20, ptr noundef %21, i32 noundef %22)
  store i64 %23, ptr %9, align 8, !tbaa !11
  %24 = load ptr, ptr %12, align 8, !tbaa !111
  call void @dictFreeStats(ptr noundef %24)
  %25 = load i64, ptr %9, align 8, !tbaa !11
  %26 = load ptr, ptr %5, align 8, !tbaa !5
  %27 = getelementptr inbounds nuw i8, ptr %26, i64 %25
  store ptr %27, ptr %5, align 8, !tbaa !5
  %28 = load i64, ptr %9, align 8, !tbaa !11
  %29 = load i64, ptr %6, align 8, !tbaa !11
  %30 = sub i64 %29, %28
  store i64 %30, ptr %6, align 8, !tbaa !11
  %31 = load ptr, ptr %7, align 8, !tbaa !18
  %32 = getelementptr inbounds nuw %struct.dict, ptr %31, i32 0, i32 3
  %33 = load i64, ptr %32, align 8, !tbaa !11
  %34 = icmp ne i64 %33, -1
  br i1 %34, label %35, label %48

35:                                               ; preds = %4
  %36 = load i64, ptr %6, align 8, !tbaa !11
  %37 = icmp ugt i64 %36, 0
  br i1 %37, label %38, label %48

38:                                               ; preds = %35
  call void @llvm.lifetime.start.p0(i64 8, ptr %13) #14
  %39 = load ptr, ptr %7, align 8, !tbaa !18
  %40 = load i32, ptr %8, align 4, !tbaa !29
  %41 = call ptr @dictGetStatsHt(ptr noundef %39, i32 noundef 1, i32 noundef %40)
  store ptr %41, ptr %13, align 8, !tbaa !111
  %42 = load ptr, ptr %5, align 8, !tbaa !5
  %43 = load i64, ptr %6, align 8, !tbaa !11
  %44 = load ptr, ptr %13, align 8, !tbaa !111
  %45 = load i32, ptr %8, align 4, !tbaa !29
  %46 = call i64 @dictGetStatsMsg(ptr noundef %42, i64 noundef %43, ptr noundef %44, i32 noundef %45)
  %47 = load ptr, ptr %13, align 8, !tbaa !111
  call void @dictFreeStats(ptr noundef %47)
  call void @llvm.lifetime.end.p0(i64 8, ptr %13) #14
  br label %48

48:                                               ; preds = %38, %35, %4
  %49 = load ptr, ptr %10, align 8, !tbaa !5
  %50 = load i64, ptr %11, align 8, !tbaa !11
  %51 = sub i64 %50, 1
  %52 = getelementptr inbounds nuw i8, ptr %49, i64 %51
  store i8 0, ptr %52, align 1, !tbaa !25
  call void @llvm.lifetime.end.p0(i64 8, ptr %12) #14
  call void @llvm.lifetime.end.p0(i64 8, ptr %11) #14
  call void @llvm.lifetime.end.p0(i64 8, ptr %10) #14
  call void @llvm.lifetime.end.p0(i64 8, ptr %9) #14
  ret void
}