; Function Attrs: nounwind uwtable
define dso_local void @dictGetStats(ptr noundef captures(none) %0, i64 noundef %1, ptr noundef readonly captures(none) %2, i32 noundef %3) local_unnamed_addr #3 {
  %5 = tail call ptr @dictGetStatsHt(ptr noundef %2, i32 noundef 0, i32 noundef %3)
  %6 = tail call i64 @dictGetStatsMsg(ptr noundef %0, i64 noundef %1, ptr noundef %5, i32 noundef %3)
  %7 = getelementptr inbounds nuw i8, ptr %5, i64 48
  %8 = load ptr, ptr %7, align 8, !tbaa !97
  tail call void @zfree(ptr noundef %8) #25
  tail call void @zfree(ptr noundef %5) #25
  %9 = getelementptr inbounds nuw i8, ptr %2, i64 40
  %10 = load i64, ptr %9, align 8, !tbaa !14
  %11 = icmp ne i64 %10, -1
  %12 = icmp ne i64 %1, %6
  %or.cond = select i1 %11, i1 %12, i1 false
  br i1 %or.cond, label %13, label %20

13:                                               ; preds = %4
  %14 = sub i64 %1, %6
  %15 = getelementptr inbounds nuw i8, ptr %0, i64 %6
  %16 = tail call ptr @dictGetStatsHt(ptr noundef nonnull %2, i32 noundef 1, i32 noundef %3)
  %17 = tail call i64 @dictGetStatsMsg(ptr noundef %15, i64 noundef %14, ptr noundef %16, i32 noundef %3)
  %18 = getelementptr inbounds nuw i8, ptr %16, i64 48
  %19 = load ptr, ptr %18, align 8, !tbaa !97
  tail call void @zfree(ptr noundef %19) #25
  tail call void @zfree(ptr noundef %16) #25
  br label %20

20:                                               ; preds = %13, %4
  %21 = getelementptr i8, ptr %0, i64 %1
  %22 = getelementptr i8, ptr %21, i64 -1
  store i8 0, ptr %22, align 1, !tbaa !13
  ret void
}